target datalayout = "e-m:e-p270:32:32-p271:32:32-p272:64:64-i64:64-i128:128-f80:128-n8:16:32:64-S128"
target triple = "x86_64-pc-linux-gnu"

%struct._srt_data_t = type { ptr, ptr }

; Function Attrs: mustprogress null_pointer_is_valid sspstrong uwtable
define void @_ZN25ServiceResponseTimeDialog8tapResetEPv(ptr noundef %0) #3 align 2 {
  %2 = alloca ptr, align 8
  %3 = alloca ptr, align 8
  %4 = alloca ptr, align 8
  %5 = alloca i32, align 4
  store ptr %0, ptr %2, align 8
  call void @llvm.lifetime.start.p0(i64 8, ptr %3) #2
  %6 = load ptr, ptr %2, align 8
  store ptr %6, ptr %3, align 8
  call void @llvm.lifetime.start.p0(i64 8, ptr %4) #2
  %7 = load ptr, ptr %3, align 8
  %8 = getelementptr inbounds nuw %struct._srt_data_t, ptr %7, i32 0, i32 1
  %9 = load ptr, ptr %8, align 8
  store ptr %9, ptr %4, align 8
  %10 = load ptr, ptr %4, align 8
  %11 = icmp ne ptr %10, null
  br i1 %11, label %13, label %12

12:                                               ; preds = %1
  store i32 1, ptr %5, align 4
  br label %19

13:                                               ; preds = %1
  %14 = load ptr, ptr %3, align 8
  %15 = getelementptr inbounds nuw %struct._srt_data_t, ptr %14, i32 0, i32 0
  %16 = load ptr, ptr %15, align 8
  call void @reset_srt_table(ptr noundef %16)
  %17 = load ptr, ptr %4, align 8
  %18 = call noundef ptr @_ZN18TapParameterDialog15statsTreeWidgetEv(ptr noundef align 8 dereferenceable_or_null(232) %17)
  call void @_ZN11QTreeWidget5clearEv(ptr noundef align 8 dereferenceable_or_null(40) %18)
  store i32 0, ptr %5, align 4
  br label %19

19:                                               ; preds = %13, %12
  call void @llvm.lifetime.end.p0(i64 8, ptr %4) #2
  call void @llvm.lifetime.end.p0(i64 8, ptr %3) #2
  %20 = load i32, ptr %5, align 4
  switch i32 %20, label %22 [
    i32 0, label %21
    i32 1, label %21
  ]

21:                                               ; preds = %19, %19
  ret void

22:                                               ; preds = %19
  unreachable
}