; Function Attrs: mustprogress null_pointer_is_valid sspstrong uwtable
define void @_ZN25ServiceResponseTimeDialog8tapResetEPv(ptr noundef readonly captures(none) %0) #2 align 2 {
  %2 = getelementptr inbounds nuw i8, ptr %0, i64 8
  %3 = load ptr, ptr %2, align 8
  %.not = icmp eq ptr %3, null
  br i1 %.not, label %7, label %4

4:                                                ; preds = %1
  %5 = load ptr, ptr %0, align 8
  tail call void @reset_srt_table(ptr noundef %5)
  %6 = tail call noundef ptr @_ZN18TapParameterDialog15statsTreeWidgetEv(ptr noundef nonnull align 8 dereferenceable_or_null(232) %3)
  tail call void @_ZN11QTreeWidget5clearEv(ptr noundef align 8 dereferenceable_or_null(40) %6)
  br label %7

7:                                                ; preds = %1, %4
  ret void
}